EXPORTS 
	??_R0?AUException@Ort@@@8 	 DATA
	??_R0?AVbad_alloc@std@@@8 	 DATA
	??_R0?AVbad_array_new_length@std@@@8 	 DATA
	??_R0?AVexception@std@@@8 	 DATA
	?api_@?$Global@X@Ort@@2PEBUOrtApi@@EB 	 DATA
	_Avx2WmemEnabledWeakValue 	 DATA
	??$?0$$V@?$_Compressed_pair@V?$allocator@D@std@@V?$_String_val@U?$_Simple_types@D@std@@@2@$00@std@@QEAA@U_Zero_then_variadic_args_t@1@@Z
	??$?0$$V@?$_Compressed_pair@V?$allocator@PEBD@std@@V?$_Vector_val@U?$_Simple_types@PEBD@std@@@2@$00@std@@QEAA@U_Zero_then_variadic_args_t@1@@Z
	??$?0$$V@?$_Compressed_pair@V?$allocator@UValue@Ort@@@std@@V?$_Vector_val@U?$_Simple_types@UValue@Ort@@@std@@@2@$00@std@@QEAA@U_Zero_then_variadic_args_t@1@@Z
	??$?0$$V@?$_Compressed_pair@V?$allocator@_W@std@@V?$_String_val@U?$_Simple_types@_W@std@@@2@$00@std@@QEAA@U_Zero_then_variadic_args_t@1@@Z
	??$?0AEAPEAUEnv@Ort@@@?$_Compressed_pair@U?$default_delete@UEnv@Ort@@@std@@PEAUEnv@Ort@@$00@std@@QEAA@U_Zero_then_variadic_args_t@1@AEAPEAUEnv@Ort@@@Z
	??$?0AEAPEAUSessionOptions@Ort@@@?$_Compressed_pair@U?$default_delete@USessionOptions@Ort@@@std@@PEAUSessionOptions@Ort@@$00@std@@QEAA@U_Zero_then_variadic_args_t@1@AEAPEAUSessionOptions@Ort@@@Z
	??$?0AEBV?$allocator@H@std@@$$V@?$_Compressed_pair@V?$allocator@H@std@@V?$_Vector_val@U?$_Simple_types@H@std@@@2@$00@std@@QEAA@U_One_then_variadic_args_t@1@AEBV?$allocator@H@1@@Z
	??$?0AEBV?$allocator@M@std@@$$V@?$_Compressed_pair@V?$allocator@M@std@@V?$_Vector_val@U?$_Simple_types@M@std@@@2@$00@std@@QEAA@U_One_then_variadic_args_t@1@AEBV?$allocator@M@1@@Z
	??$?0U?$default_delete@UEnv@Ort@@@std@@$0A@@?$unique_ptr@UEnv@Ort@@U?$default_delete@UEnv@Ort@@@std@@@std@@QEAA@PEAUEnv@Ort@@@Z
	??$?0U?$default_delete@USessionOptions@Ort@@@std@@$0A@@?$unique_ptr@USessionOptions@Ort@@U?$default_delete@USessionOptions@Ort@@@std@@@std@@QEAA@PEAUSessionOptions@Ort@@@Z
	??$?0V?$allocator@D@std@@$$V@?$_Compressed_pair@V?$allocator@D@std@@V?$_String_val@U?$_Simple_types@D@std@@@2@$00@std@@QEAA@U_One_then_variadic_args_t@1@$$QEAV?$allocator@D@1@@Z
	??$?0V?$allocator@M@std@@$0A@@?$vector@MV?$allocator@M@std@@@std@@QEAA@_KAEBMAEBV?$allocator@M@1@@Z
	??$?0V?$allocator@UValue@Ort@@@std@@PEAUValue@Ort@@PEAU23@PEAU23@@?$_Compressed_pair@V?$allocator@UValue@Ort@@@std@@V?$_Vector_val@U?$_Simple_types@UValue@Ort@@@std@@@2@$00@std@@QEAA@U_One_then_variadic_args_t@1@$$QEAV?$allocator@UValue@Ort@@@1@$$QEAPEAUValue@Ort@@22@Z
	??$?0V?$allocator@_W@std@@$$V@?$_Compressed_pair@V?$allocator@_W@std@@V?$_String_val@U?$_Simple_types@_W@std@@@2@$00@std@@QEAA@U_One_then_variadic_args_t@1@$$QEAV?$allocator@_W@1@@Z
	??$?4U?$default_delete@UEnv@Ort@@@std@@$0A@@?$unique_ptr@UEnv@Ort@@U?$default_delete@UEnv@Ort@@@std@@@std@@QEAAAEAV01@$$QEAV01@@Z
	??$?4U?$default_delete@USessionOptions@Ort@@@std@@$0A@@?$unique_ptr@USessionOptions@Ort@@U?$default_delete@USessionOptions@Ort@@@std@@@std@@QEAAAEAV01@$$QEAV01@@Z
	??$CreateTensor@H@Value@Ort@@SA?AU01@PEBUOrtMemoryInfo@@PEAH_KPEB_J2@Z
	??$CreateTensor@M@Value@Ort@@SA?AU01@PEBUOrtMemoryInfo@@PEAM_KPEB_J2@Z
	??$CreateTensor@_J@Value@Ort@@SA?AU01@PEBUOrtMemoryInfo@@PEA_J_KPEB_J2@Z
	??$GetTensorMutableData@M@?$ValueImpl@UOrtValue@@@detail@Ort@@QEAAPEAMXZ
	??$_Allocate@$0BA@U_Default_allocate_traits@std@@@std@@YAPEAX_K@Z
	??$_Allocate_at_least_helper@V?$allocator@D@std@@@std@@YAPEADAEAV?$allocator@D@0@AEA_K@Z
	??$_Allocate_at_least_helper@V?$allocator@H@std@@@std@@YAPEAHAEAV?$allocator@H@0@AEA_K@Z
	??$_Allocate_at_least_helper@V?$allocator@M@std@@@std@@YAPEAMAEAV?$allocator@M@0@AEA_K@Z
	??$_Allocate_at_least_helper@V?$allocator@PEBD@std@@@std@@YAPEAPEBDAEAV?$allocator@PEBD@0@AEA_K@Z
	??$_Allocate_at_least_helper@V?$allocator@UValue@Ort@@@std@@@std@@YAPEAUValue@Ort@@AEAV?$allocator@UValue@Ort@@@0@AEA_K@Z
	??$_Allocate_at_least_helper@V?$allocator@_W@std@@@std@@YAPEA_WAEAV?$allocator@_W@0@AEA_K@Z
	??$_Allocate_for_capacity@$0A@@?$basic_string@DU?$char_traits@D@std@@V?$allocator@D@2@@std@@CAPEADAEAV?$allocator@D@1@AEA_K@Z
	??$_Allocate_for_capacity@$0A@@?$basic_string@_WU?$char_traits@_W@std@@V?$allocator@_W@2@@std@@CAPEA_WAEAV?$allocator@_W@1@AEA_K@Z
	??$_Allocate_manually_vector_aligned@U_Default_allocate_traits@std@@@std@@YAPEAX_K@Z
	??$_Construct@$00PEBD@?$basic_string@DU?$char_traits@D@std@@V?$allocator@D@2@@std@@AEAAXQEBD_K@Z
	??$_Construct@$00PEB_W@?$basic_string@_WU?$char_traits@_W@std@@V?$allocator@_W@2@@std@@AEAAXQEB_W_K@Z
	??$_Construct@$01PEBD@?$basic_string@DU?$char_traits@D@std@@V?$allocator@D@2@@std@@AEAAXQEBD_K@Z
	??$_Construct_in_place@PEADAEAPEAD@std@@YAXAEAPEAD0@Z
	??$_Construct_in_place@PEADAEBQEAD@std@@YAXAEAPEADAEBQEAD@Z
	??$_Construct_in_place@PEA_WAEAPEA_W@std@@YAXAEAPEA_W0@Z
	??$_Construct_in_place@PEA_WAEBQEA_W@std@@YAXAEAPEA_WAEBQEA_W@Z
	??$_Construct_in_place@PEBDPEBD@std@@YAXAEAPEBD$$QEAPEBD@Z
	??$_Construct_in_place@UValue@Ort@@U12@@std@@YAXAEAUValue@Ort@@$$QEAU12@@Z
	??$_Construct_n@$$V@?$vector@HV?$allocator@H@std@@@std@@AEAAX_K@Z
	??$_Construct_n@$$V@?$vector@MV?$allocator@M@std@@@std@@AEAAX_K@Z
	??$_Construct_n@AEBM@?$vector@MV?$allocator@M@std@@@std@@AEAAX_KAEBM@Z
	??$_Convert_size@_K_K@std@@YA_K_K@Z
	??$_Copy_memmove@PEAPEBDPEAPEBD@std@@YAPEAPEBDPEAPEBD00@Z
	??$_Copy_memmove_tail@PEAPEBD@std@@YAPEAPEBDQEBDQEAPEBD_K2@Z
	??$_Deallocate@$0BA@@std@@YAXPEAX_K@Z
	??$_Destroy_in_place@PEAD@std@@YAXAEAPEAD@Z
	??$_Destroy_in_place@PEA_W@std@@YAXAEAPEA_W@Z
	??$_Destroy_range@V?$allocator@H@std@@@std@@YAXPEAHQEAHAEAV?$allocator@H@0@@Z
	??$_Destroy_range@V?$allocator@M@std@@@std@@YAXPEAMQEAMAEAV?$allocator@M@0@@Z
	??$_Destroy_range@V?$allocator@PEBD@std@@@std@@YAXPEAPEBDQEAPEBDAEAV?$allocator@PEBD@0@@Z
	??$_Destroy_range@V?$allocator@UValue@Ort@@@std@@@std@@YAXPEAUValue@Ort@@QEAU12@AEAV?$allocator@UValue@Ort@@@0@@Z
	??$_Emplace_back@$$V@?$_Uninitialized_backout_al@V?$allocator@H@std@@@std@@QEAAXXZ
	??$_Emplace_back@$$V@?$_Uninitialized_backout_al@V?$allocator@M@std@@@std@@QEAAXXZ
	??$_Emplace_back@AEBM@?$_Uninitialized_backout_al@V?$allocator@M@std@@@std@@QEAAXAEBM@Z
	??$_Emplace_back@PEBD@?$_Uninitialized_backout_al@V?$allocator@PEBD@std@@@std@@QEAAX$$QEAPEBD@Z
	??$_Emplace_back@UValue@Ort@@@?$_Uninitialized_backout_al@V?$allocator@UValue@Ort@@@std@@@std@@QEAAX$$QEAUValue@Ort@@@Z
	??$_Emplace_back_with_unused_capacity@$$T@?$vector@UValue@Ort@@V?$allocator@UValue@Ort@@@std@@@std@@AEAAAEAUValue@Ort@@$$QEA$$T@Z
	??$_Emplace_back_with_unused_capacity@PEBD@?$vector@PEBDV?$allocator@PEBD@std@@@std@@AEAAAEAPEBD$$QEAPEBD@Z
	??$_Emplace_back_with_unused_capacity@UValue@Ort@@@?$vector@UValue@Ort@@V?$allocator@UValue@Ort@@@std@@@std@@AEAAAEAUValue@Ort@@$$QEAU23@@Z
	??$_Emplace_one_at_back@$$T@?$vector@UValue@Ort@@V?$allocator@UValue@Ort@@@std@@@std@@AEAAAEAUValue@Ort@@$$QEA$$T@Z
	??$_Emplace_one_at_back@PEBD@?$vector@PEBDV?$allocator@PEBD@std@@@std@@AEAAAEAPEBD$$QEAPEBD@Z
	??$_Emplace_one_at_back@UValue@Ort@@@?$vector@UValue@Ort@@V?$allocator@UValue@Ort@@@std@@@std@@AEAAAEAUValue@Ort@@$$QEAU23@@Z
	??$_Emplace_reallocate@$$T@?$vector@UValue@Ort@@V?$allocator@UValue@Ort@@@std@@@std@@AEAAPEAUValue@Ort@@QEAU23@$$QEA$$T@Z
	??$_Emplace_reallocate@PEBD@?$vector@PEBDV?$allocator@PEBD@std@@@std@@AEAAPEAPEBDQEAPEBD$$QEAPEBD@Z
	??$_Emplace_reallocate@UValue@Ort@@@?$vector@UValue@Ort@@V?$allocator@UValue@Ort@@@std@@@std@@AEAAPEAUValue@Ort@@QEAU23@$$QEAU23@@Z
	??$_Fill_zero_memset@PEAM@std@@YAXPEAM_K@Z
	??$_Get_size_of_n@$00@std@@YA_K_K@Z
	??$_Get_size_of_n@$01@std@@YA_K_K@Z
	??$_Get_size_of_n@$03@std@@YA_K_K@Z
	??$_Get_size_of_n@$07@std@@YA_K_K@Z
	??$_Get_unwrapped@AEBQEAPEBD@std@@YA?A_TAEBQEAPEBD@Z
	??$_Get_unwrapped@AEBQEAUValue@Ort@@@std@@YA?A_TAEBQEAUValue@Ort@@@Z
	??$_Is_all_bits_zero@M@std@@YA_NAEBM@Z
	??$_Max_limit@_J@std@@YA_JXZ
	??$_Reallocate@$0A@@?$vector@UValue@Ort@@V?$allocator@UValue@Ort@@@std@@@std@@AEAAXAEA_K@Z
	??$_Reallocate_grow_by@V<lambda_a3050a43f3157934f354774ab3dd2e02>@@_K_W@?$basic_string@_WU?$char_traits@_W@std@@V?$allocator@_W@2@@std@@AEAAAEAV01@_KV<lambda_a3050a43f3157934f354774ab3dd2e02>@@_K_W@Z
	??$_To_address@PEAH@std@@YA?A_PAEBQEAH@Z
	??$_To_address@PEAM@std@@YA?A_PAEBQEAM@Z
	??$_To_address@PEAPEBD@std@@YA?A_PAEBQEAPEBD@Z
	??$_Unfancy@D@std@@YAPEADPEAD@Z
	??$_Unfancy@H@std@@YAPEAHPEAH@Z
	??$_Unfancy@M@std@@YAPEAMPEAM@Z
	??$_Unfancy@PEBD@std@@YAPEAPEBDPEAPEBD@Z
	??$_Unfancy@UValue@Ort@@@std@@YAPEAUValue@Ort@@PEAU12@@Z
	??$_Unfancy@_W@std@@YAPEA_WPEA_W@Z
	??$_Unfancy_maybe_null@H@std@@YAPEAHPEAH@Z
	??$_Unfancy_maybe_null@M@std@@YAPEAMPEAM@Z
	??$_Unfancy_maybe_null@PEBD@std@@YAPEAPEBDPEAPEBD@Z
	??$_Unfancy_maybe_null@UValue@Ort@@@std@@YAPEAUValue@Ort@@PEAU12@@Z
	??$_Uninitialized_fill_n@V?$allocator@M@std@@@std@@YAPEAMPEAM_KAEBMAEAV?$allocator@M@0@@Z
	??$_Uninitialized_move@PEAPEBDV?$allocator@PEBD@std@@@std@@YAPEAPEBDQEAPEBD0PEAPEBDAEAV?$allocator@PEBD@0@@Z
	??$_Uninitialized_move@PEAUValue@Ort@@V?$allocator@UValue@Ort@@@std@@@std@@YAPEAUValue@Ort@@QEAU12@0PEAU12@AEAV?$allocator@UValue@Ort@@@0@@Z
	??$_Uninitialized_value_construct_n@V?$allocator@H@std@@@std@@YAPEAHPEAH_KAEAV?$allocator@H@0@@Z
	??$_Uninitialized_value_construct_n@V?$allocator@M@std@@@std@@YAPEAMPEAM_KAEAV?$allocator@M@0@@Z
	??$_Zero_range@PEAH@std@@YAPEAHQEAH0@Z
	??$_Zero_range@PEAM@std@@YAPEAMQEAM0@Z
	??$addressof@PEAD@std@@YAPEAPEADAEAPEAD@Z
	??$addressof@PEA_W@std@@YAPEAPEA_WAEAPEA_W@Z
	??$addressof@PEBD@std@@YAPEAPEBDAEAPEBD@Z
	??$addressof@UValue@Ort@@@std@@YAPEAUValue@Ort@@AEAU12@@Z
	??$addressof@V?$_String_val@U?$_Simple_types@D@std@@@std@@@std@@YAPEAV?$_String_val@U?$_Simple_types@D@std@@@0@AEAV10@@Z
	??$addressof@V?$_String_val@U?$_Simple_types@_W@std@@@std@@@std@@YAPEAV?$_String_val@U?$_Simple_types@_W@std@@@0@AEAV10@@Z
	??$construct@H$$V@?$_Default_allocator_traits@V?$allocator@H@std@@@std@@SAXAEAV?$allocator@H@1@QEAH@Z
	??$construct@M$$V@?$_Default_allocator_traits@V?$allocator@M@std@@@std@@SAXAEAV?$allocator@M@1@QEAM@Z
	??$construct@MAEBM@?$_Default_allocator_traits@V?$allocator@M@std@@@std@@SAXAEAV?$allocator@M@1@QEAMAEBM@Z
	??$construct@PEBDPEBD@?$_Default_allocator_traits@V?$allocator@PEBD@std@@@std@@SAXAEAV?$allocator@PEBD@1@QEAPEBD$$QEAPEBD@Z
	??$construct@UValue@Ort@@$$T@?$_Default_allocator_traits@V?$allocator@UValue@Ort@@@std@@@std@@SAXAEAV?$allocator@UValue@Ort@@@1@QEAUValue@Ort@@$$QEA$$T@Z
	??$construct@UValue@Ort@@U12@@?$_Default_allocator_traits@V?$allocator@UValue@Ort@@@std@@@std@@SAXAEAV?$allocator@UValue@Ort@@@1@QEAUValue@Ort@@$$QEAU34@@Z
	??$destroy@UValue@Ort@@@?$_Default_allocator_traits@V?$allocator@UValue@Ort@@@std@@@std@@SAXAEAV?$allocator@UValue@Ort@@@1@QEAUValue@Ort@@@Z
	??$emplace_back@$$T@?$vector@UValue@Ort@@V?$allocator@UValue@Ort@@@std@@@std@@QEAAAEAUValue@Ort@@$$QEA$$T@Z
	??$exchange@PEAUEnv@Ort@@$$T@std@@YAPEAUEnv@Ort@@AEAPEAU12@$$QEA$$T@Z
	??$exchange@PEAUEnv@Ort@@AEAPEAU12@@std@@YAPEAUEnv@Ort@@AEAPEAU12@0@Z
	??$exchange@PEAUSessionOptions@Ort@@$$T@std@@YAPEAUSessionOptions@Ort@@AEAPEAU12@$$QEA$$T@Z
	??$exchange@PEAUSessionOptions@Ort@@AEAPEAU12@@std@@YAPEAUSessionOptions@Ort@@AEAPEAU12@0@Z
	??$exchange@PEAUValue@Ort@@$$T@std@@YAPEAUValue@Ort@@AEAPEAU12@$$QEA$$T@Z
	??$forward@$$T@std@@YA$$QEA$$TAEA$$T@Z
	??$forward@AEAPEAD@std@@YAAEAPEADAEAPEAD@Z
	??$forward@AEAPEAUEnv@Ort@@@std@@YAAEAPEAUEnv@Ort@@AEAPEAU12@@Z
	??$forward@AEAPEAUSessionOptions@Ort@@@std@@YAAEAPEAUSessionOptions@Ort@@AEAPEAU12@@Z
	??$forward@AEAPEA_W@std@@YAAEAPEA_WAEAPEA_W@Z
	??$forward@AEAY03$$CBD@std@@YAAEAY03$$CBDAEAY03$$CBD@Z
	??$forward@AEBM@std@@YAAEBMAEBM@Z
	??$forward@AEBQEAD@std@@YAAEBQEADAEBQEAD@Z
	??$forward@AEBQEA_W@std@@YAAEBQEA_WAEBQEA_W@Z
	??$forward@AEBV?$allocator@H@std@@@std@@YAAEBV?$allocator@H@0@AEBV10@@Z
	??$forward@AEBV?$allocator@M@std@@@std@@YAAEBV?$allocator@M@0@AEBV10@@Z
	??$forward@PEAUValue@Ort@@@std@@YA$$QEAPEAUValue@Ort@@AEAPEAU12@@Z
	??$forward@PEBD@std@@YA$$QEAPEBDAEAPEBD@Z
	??$forward@U?$default_delete@UEnv@Ort@@@std@@@std@@YA$$QEAU?$default_delete@UEnv@Ort@@@0@AEAU10@@Z
	??$forward@U?$default_delete@USessionOptions@Ort@@@std@@@std@@YA$$QEAU?$default_delete@USessionOptions@Ort@@@0@AEAU10@@Z
	??$forward@UValue@Ort@@@std@@YA$$QEAUValue@Ort@@AEAU12@@Z
	??$forward@V?$allocator@D@std@@@std@@YA$$QEAV?$allocator@D@0@AEAV10@@Z
	??$forward@V?$allocator@UValue@Ort@@@std@@@std@@YA$$QEAV?$allocator@UValue@Ort@@@0@AEAV10@@Z
	??$forward@V?$allocator@_W@std@@@std@@YA$$QEAV?$allocator@_W@0@AEAV10@@Z
	??$forward@W4OrtLoggingLevel@@@std@@YA$$QEAW4OrtLoggingLevel@@AEAW41@@Z
	??$make_unique@UEnv@Ort@@W4OrtLoggingLevel@@AEAY03$$CBD$0A@@std@@YA?AV?$unique_ptr@UEnv@Ort@@U?$default_delete@UEnv@Ort@@@std@@@0@$$QEAW4OrtLoggingLevel@@AEAY03$$CBD@Z
	??$make_unique@USessionOptions@Ort@@$$V$0A@@std@@YA?AV?$unique_ptr@USessionOptions@Ort@@U?$default_delete@USessionOptions@Ort@@@std@@@0@XZ
	??$max@_K@std@@YAAEB_KAEB_K0@Z
	??$min@_K@std@@YAAEB_KAEB_K0@Z
	??$move@AEAPEAPEBD@std@@YA$$QEAPEAPEBDAEAPEAPEBD@Z
	??$move@AEAPEBD@std@@YA$$QEAPEBDAEAPEBD@Z
	??$move@AEAUValue@Ort@@@std@@YA$$QEAUValue@Ort@@AEAU12@@Z
	??$move@AEAV?$allocator@D@std@@@std@@YA$$QEAV?$allocator@D@0@AEAV10@@Z
	??$move@AEAV?$allocator@UValue@Ort@@@std@@@std@@YA$$QEAV?$allocator@UValue@Ort@@@0@AEAV10@@Z
	??$move@AEAV?$allocator@_W@std@@@std@@YA$$QEAV?$allocator@_W@0@AEAV10@@Z
	??$move@AEAV?$basic_string@DU?$char_traits@D@std@@V?$allocator@D@2@@std@@@std@@YA$$QEAV?$basic_string@DU?$char_traits@D@std@@V?$allocator@D@2@@0@AEAV10@@Z
	??0?$Base@UOrtEnv@@@detail@Ort@@QEAA@XZ
	??0?$Base@UOrtMemoryInfo@@@detail@Ort@@QEAA@PEAUOrtMemoryInfo@@@Z
	??0?$Base@UOrtRunOptions@@@detail@Ort@@QEAA@XZ
	??0?$Base@UOrtSession@@@detail@Ort@@QEAA@XZ
	??0?$Base@UOrtSessionOptions@@@detail@Ort@@QEAA@XZ
	??0?$Base@UOrtStatus@@@detail@Ort@@QEAA@PEAUOrtStatus@@@Z
	??0?$Base@UOrtValue@@@detail@Ort@@QEAA@$$QEAU012@@Z
	??0?$Base@UOrtValue@@@detail@Ort@@QEAA@PEAUOrtValue@@@Z
	??0?$Base@UOrtValue@@@detail@Ort@@QEAA@XZ
	??0?$ConstSessionImpl@UOrtSession@@@detail@Ort@@QEAA@XZ
	??0?$ConstSessionOptionsImpl@UOrtSessionOptions@@@detail@Ort@@QEAA@XZ
	??0?$ConstValueImpl@UOrtValue@@@detail@Ort@@QEAA@$$QEAU012@@Z
	??0?$ConstValueImpl@UOrtValue@@@detail@Ort@@QEAA@PEAUOrtValue@@@Z
	??0?$ConstValueImpl@UOrtValue@@@detail@Ort@@QEAA@XZ
	??0?$MemoryInfoImpl@UOrtMemoryInfo@@@detail@Ort@@QEAA@PEAUOrtMemoryInfo@@@Z
	??0?$SessionImpl@UOrtSession@@@detail@Ort@@QEAA@XZ
	??0?$SessionOptionsImpl@UOrtSessionOptions@@@detail@Ort@@QEAA@XZ
	??0?$ValueImpl@UOrtValue@@@detail@Ort@@QEAA@$$QEAU012@@Z
	??0?$ValueImpl@UOrtValue@@@detail@Ort@@QEAA@PEAUOrtValue@@@Z
	??0?$ValueImpl@UOrtValue@@@detail@Ort@@QEAA@XZ
	??0?$_String_val@U?$_Simple_types@D@std@@@std@@QEAA@XZ
	??0?$_String_val@U?$_Simple_types@_W@std@@@std@@QEAA@XZ
	??0?$_Uninitialized_backout_al@V?$allocator@H@std@@@std@@QEAA@PEAHAEAV?$allocator@H@1@@Z
	??0?$_Uninitialized_backout_al@V?$allocator@M@std@@@std@@QEAA@PEAMAEAV?$allocator@M@1@@Z
	??0?$_Uninitialized_backout_al@V?$allocator@PEBD@std@@@std@@QEAA@PEAPEBDAEAV?$allocator@PEBD@1@@Z
	??0?$_Uninitialized_backout_al@V?$allocator@UValue@Ort@@@std@@@std@@QEAA@PEAUValue@Ort@@AEAV?$allocator@UValue@Ort@@@1@@Z
	??0?$_Vector_val@U?$_Simple_types@H@std@@@std@@QEAA@XZ
	??0?$_Vector_val@U?$_Simple_types@M@std@@@std@@QEAA@XZ
	??0?$_Vector_val@U?$_Simple_types@PEBD@std@@@std@@QEAA@XZ
	??0?$_Vector_val@U?$_Simple_types@UValue@Ort@@@std@@@std@@QEAA@PEAUValue@Ort@@00@Z
	??0?$_Vector_val@U?$_Simple_types@UValue@Ort@@@std@@@std@@QEAA@XZ
	??0?$allocator@D@std@@QEAA@XZ
	??0?$allocator@H@std@@QEAA@XZ
	??0?$allocator@M@std@@QEAA@XZ
	??0?$allocator@PEBD@std@@QEAA@XZ
	??0?$allocator@UValue@Ort@@@std@@QEAA@XZ
	??0?$allocator@_W@std@@QEAA@XZ
	??0?$basic_string@DU?$char_traits@D@std@@V?$allocator@D@2@@std@@QEAA@$$QEAV01@@Z
	??0?$basic_string@DU?$char_traits@D@std@@V?$allocator@D@2@@std@@QEAA@AEBV01@@Z
	??0?$basic_string@DU?$char_traits@D@std@@V?$allocator@D@2@@std@@QEAA@QEBD@Z
	??0?$basic_string@_WU?$char_traits@_W@std@@V?$allocator@_W@2@@std@@QEAA@$$QEAV01@@Z
	??0?$basic_string@_WU?$char_traits@_W@std@@V?$allocator@_W@2@@std@@QEAA@QEB_W@Z
	??0?$basic_string@_WU?$char_traits@_W@std@@V?$allocator@_W@2@@std@@QEAA@XZ
	??0?$vector@HV?$allocator@H@std@@@std@@QEAA@_KAEBV?$allocator@H@1@@Z
	??0?$vector@MV?$allocator@M@std@@@std@@QEAA@_KAEBV?$allocator@M@1@@Z
	??0?$vector@PEBDV?$allocator@PEBD@std@@@std@@QEAA@XZ
	??0?$vector@UValue@Ort@@V?$allocator@UValue@Ort@@@std@@@std@@QEAA@$$QEAV01@@Z
	??0?$vector@UValue@Ort@@V?$allocator@UValue@Ort@@@std@@@std@@QEAA@XZ
	??0Env@Ort@@QEAA@W4OrtLoggingLevel@@PEBD@Z
	??0Exception@Ort@@QEAA@$$QEAV?$basic_string@DU?$char_traits@D@std@@V?$allocator@D@2@@std@@W4OrtErrorCode@@@Z
	??0Exception@Ort@@QEAA@AEBU01@@Z
	??0MemoryInfo@Ort@@QEAA@PEAUOrtMemoryInfo@@@Z
	??0RunOptions@Ort@@QEAA@$$T@Z
	??0Session@Ort@@QEAA@AEBUEnv@1@PEB_WAEBUSessionOptions@1@@Z
	??0SessionOptions@Ort@@QEAA@XZ
	??0Status@Ort@@QEAA@PEAUOrtStatus@@@Z
	??0Value@Ort@@QEAA@$$QEAU01@@Z
	??0Value@Ort@@QEAA@$$T@Z
	??0Value@Ort@@QEAA@PEAUOrtValue@@@Z
	??0_Bxty@?$_String_val@U?$_Simple_types@D@std@@@std@@QEAA@XZ
	??0_Bxty@?$_String_val@U?$_Simple_types@_W@std@@@std@@QEAA@XZ
	??0_Fake_proxy_ptr_impl@std@@QEAA@AEBU_Fake_allocator@1@AEBU_Container_base0@1@@Z
	??0bad_alloc@std@@AEAA@QEBD@Z
	??0bad_alloc@std@@QEAA@AEBV01@@Z
	??0bad_array_new_length@std@@QEAA@AEBV01@@Z
	??0bad_array_new_length@std@@QEAA@XZ
	??0exception@std@@QEAA@AEBV01@@Z
	??0exception@std@@QEAA@QEBDH@Z
	??0exception@std@@QEAA@XZ
	??1?$Base@UOrtEnv@@@detail@Ort@@QEAA@XZ
	??1?$Base@UOrtMemoryInfo@@@detail@Ort@@QEAA@XZ
	??1?$Base@UOrtRunOptions@@@detail@Ort@@QEAA@XZ
	??1?$Base@UOrtSession@@@detail@Ort@@QEAA@XZ
	??1?$Base@UOrtSessionOptions@@@detail@Ort@@QEAA@XZ
	??1?$Base@UOrtStatus@@@detail@Ort@@QEAA@XZ
	??1?$Base@UOrtValue@@@detail@Ort@@QEAA@XZ
	??1?$ConstSessionImpl@UOrtSession@@@detail@Ort@@QEAA@XZ
	??1?$ConstSessionOptionsImpl@UOrtSessionOptions@@@detail@Ort@@QEAA@XZ
	??1?$ConstValueImpl@UOrtValue@@@detail@Ort@@QEAA@XZ
	??1?$MemoryInfoImpl@UOrtMemoryInfo@@@detail@Ort@@QEAA@XZ
	??1?$SessionImpl@UOrtSession@@@detail@Ort@@QEAA@XZ
	??1?$SessionOptionsImpl@UOrtSessionOptions@@@detail@Ort@@QEAA@XZ
	??1?$ValueImpl@UOrtValue@@@detail@Ort@@QEAA@XZ
	??1?$_Compressed_pair@V?$allocator@D@std@@V?$_String_val@U?$_Simple_types@D@std@@@2@$00@std@@QEAA@XZ
	??1?$_Compressed_pair@V?$allocator@_W@std@@V?$_String_val@U?$_Simple_types@_W@std@@@2@$00@std@@QEAA@XZ
	??1?$_String_val@U?$_Simple_types@D@std@@@std@@QEAA@XZ
	??1?$_String_val@U?$_Simple_types@_W@std@@@std@@QEAA@XZ
	??1?$_Tidy_guard@V?$vector@HV?$allocator@H@std@@@std@@@std@@QEAA@XZ
	??1?$_Tidy_guard@V?$vector@MV?$allocator@M@std@@@std@@@std@@QEAA@XZ
	??1?$_Uninitialized_backout_al@V?$allocator@H@std@@@std@@QEAA@XZ
	??1?$_Uninitialized_backout_al@V?$allocator@M@std@@@std@@QEAA@XZ
	??1?$_Uninitialized_backout_al@V?$allocator@PEBD@std@@@std@@QEAA@XZ
	??1?$_Uninitialized_backout_al@V?$allocator@UValue@Ort@@@std@@@std@@QEAA@XZ
	??1?$basic_string@DU?$char_traits@D@std@@V?$allocator@D@2@@std@@QEAA@XZ
	??1?$basic_string@_WU?$char_traits@_W@std@@V?$allocator@_W@2@@std@@QEAA@XZ
	??1?$unique_ptr@UEnv@Ort@@U?$default_delete@UEnv@Ort@@@std@@@std@@QEAA@XZ
	??1?$unique_ptr@USessionOptions@Ort@@U?$default_delete@USessionOptions@Ort@@@std@@@std@@QEAA@XZ
	??1?$vector@HV?$allocator@H@std@@@std@@QEAA@XZ
	??1?$vector@MV?$allocator@M@std@@@std@@QEAA@XZ
	??1?$vector@PEBDV?$allocator@PEBD@std@@@std@@QEAA@XZ
	??1?$vector@UValue@Ort@@V?$allocator@UValue@Ort@@@std@@@std@@QEAA@XZ
	??1Env@Ort@@QEAA@XZ
	??1Exception@Ort@@UEAA@XZ
	??1MemoryInfo@Ort@@QEAA@XZ
	??1RunOptions@Ort@@QEAA@XZ
	??1SessionOptions@Ort@@QEAA@XZ
	??1Status@Ort@@QEAA@XZ
	??1Value@Ort@@QEAA@XZ
	??1_Bxty@?$_String_val@U?$_Simple_types@D@std@@@std@@QEAA@XZ
	??1_Bxty@?$_String_val@U?$_Simple_types@_W@std@@@std@@QEAA@XZ
	??1_Reallocation_guard@?$vector@PEBDV?$allocator@PEBD@std@@@std@@QEAA@XZ
	??1_Reallocation_guard@?$vector@UValue@Ort@@V?$allocator@UValue@Ort@@@std@@@std@@QEAA@XZ
	??1_Simple_reallocation_guard@?$vector@UValue@Ort@@V?$allocator@UValue@Ort@@@std@@@std@@QEAA@XZ
	??1bad_alloc@std@@UEAA@XZ
	??1bad_array_new_length@std@@UEAA@XZ
	??1exception@std@@UEAA@XZ
	??2@YAPEAX_KPEAX@Z
	??A?$basic_string@_WU?$char_traits@_W@std@@V?$allocator@_W@2@@std@@QEAAAEA_W_K@Z
	??A?$vector@HV?$allocator@H@std@@@std@@QEAAAEAH_K@Z
	??A?$vector@UValue@Ort@@V?$allocator@UValue@Ort@@@std@@@std@@QEAAAEAUValue@Ort@@_K@Z
	??B?$Base@UOrtEnv@@@detail@Ort@@QEBAPEAUOrtEnv@@XZ
	??B?$Base@UOrtMemoryInfo@@@detail@Ort@@QEBAPEAUOrtMemoryInfo@@XZ
	??B?$Base@UOrtRunOptions@@@detail@Ort@@QEBAPEAUOrtRunOptions@@XZ
	??B?$Base@UOrtSessionOptions@@@detail@Ort@@QEBAPEAUOrtSessionOptions@@XZ
	??B?$unique_ptr@UEnv@Ort@@U?$default_delete@UEnv@Ort@@@std@@@std@@QEBA_NXZ
	??B?$unique_ptr@USessionOptions@Ort@@U?$default_delete@USessionOptions@Ort@@@std@@@std@@QEBA_NXZ
	??C?$unique_ptr@USessionOptions@Ort@@U?$default_delete@USessionOptions@Ort@@@std@@@std@@QEBAPEAUSessionOptions@Ort@@XZ
	??D?$unique_ptr@UEnv@Ort@@U?$default_delete@UEnv@Ort@@@std@@@std@@QEBAAEAUEnv@Ort@@XZ
	??D?$unique_ptr@USessionOptions@Ort@@U?$default_delete@USessionOptions@Ort@@@std@@@std@@QEBAAEAUSessionOptions@Ort@@XZ
	??R<lambda_a3050a43f3157934f354774ab3dd2e02>@@QEBA@QEA_WQEB_W_K2_W@Z
	??R?$default_delete@UEnv@Ort@@@std@@QEBAXPEAUEnv@Ort@@@Z
	??R?$default_delete@USessionOptions@Ort@@@std@@QEBAXPEAUSessionOptions@Ort@@@Z
	??_7Exception@Ort@@6B@
	??_7bad_alloc@std@@6B@
	??_7bad_array_new_length@std@@6B@
	??_7exception@std@@6B@
	?CreateCpu@MemoryInfo@Ort@@SA?AU12@W4OrtAllocatorType@@W4OrtMemType@@@Z
	?CreateTensor@Value@Ort@@SA?AU12@PEBUOrtMemoryInfo@@PEAX_KPEB_J2W4ONNXTensorElementDataType@@@Z
	?GetApi@Ort@@YAAEBUOrtApi@@XZ
	?GetErrorCode@Status@Ort@@QEBA?AW4OrtErrorCode@@XZ
	?GetErrorMessage@Status@Ort@@QEBA?AV?$basic_string@DU?$char_traits@D@std@@V?$allocator@D@2@@std@@XZ
	?OrtRelease@detail@Ort@@YAXPEAUOrtEnv@@@Z
	?OrtRelease@detail@Ort@@YAXPEAUOrtMemoryInfo@@@Z
	?OrtRelease@detail@Ort@@YAXPEAUOrtRunOptions@@@Z
	?OrtRelease@detail@Ort@@YAXPEAUOrtSession@@@Z
	?OrtRelease@detail@Ort@@YAXPEAUOrtSessionOptions@@@Z
	?OrtRelease@detail@Ort@@YAXPEAUOrtStatus@@@Z
	?OrtRelease@detail@Ort@@YAXPEAUOrtValue@@@Z
	?Run@?$SessionImpl@UOrtSession@@@detail@Ort@@QEAA?AV?$vector@UValue@Ort@@V?$allocator@UValue@Ort@@@std@@@std@@AEBURunOptions@3@PEBQEBDPEBUValue@3@_K13@Z
	?Run@?$SessionImpl@UOrtSession@@@detail@Ort@@QEAAXAEBURunOptions@3@PEBQEBDPEBUValue@3@_K1PEAU53@3@Z
	?SetGraphOptimizationLevel@?$SessionOptionsImpl@UOrtSessionOptions@@@detail@Ort@@QEAAAEAU123@W4GraphOptimizationLevel@@@Z
	?SetInterOpNumThreads@?$SessionOptionsImpl@UOrtSessionOptions@@@detail@Ort@@QEAAAEAU123@H@Z
	?SetIntraOpNumThreads@?$SessionOptionsImpl@UOrtSessionOptions@@@detail@Ort@@QEAAAEAU123@H@Z
	?ThrowOnError@Ort@@YAXPEAUOrtStatus@@@Z
	?ThrowStatus@detail@Ort@@YAXAEBUStatus@2@@Z
	?_Activate_SSO_buffer@?$_String_val@U?$_Simple_types@D@std@@@std@@QEAAXXZ
	?_Activate_SSO_buffer@?$_String_val@U?$_Simple_types@_W@std@@@std@@QEAAXXZ
	?_Adjust_manually_vector_aligned@std@@YAXAEAPEAXAEA_K@Z
	?_Alloc_proxy@_Container_base0@std@@QEAAXAEBU_Fake_allocator@2@@Z
	?_Allocate@_Default_allocate_traits@std@@SAPEAX_K@Z
	?_Buy_nonzero@?$vector@HV?$allocator@H@std@@@std@@AEAAX_K@Z
	?_Buy_nonzero@?$vector@MV?$allocator@M@std@@@std@@AEAAX_K@Z
	?_Buy_raw@?$vector@HV?$allocator@H@std@@@std@@AEAAX_K@Z
	?_Buy_raw@?$vector@MV?$allocator@M@std@@@std@@AEAAX_K@Z
	?_Calculate_growth@?$basic_string@DU?$char_traits@D@std@@V?$allocator@D@2@@std@@CA_K_K00@Z
	?_Calculate_growth@?$basic_string@_WU?$char_traits@_W@std@@V?$allocator@_W@2@@std@@AEBA_K_K@Z
	?_Calculate_growth@?$basic_string@_WU?$char_traits@_W@std@@V?$allocator@_W@2@@std@@CA_K_K00@Z
	?_Calculate_growth@?$vector@PEBDV?$allocator@PEBD@std@@@std@@AEBA_K_K@Z
	?_Calculate_growth@?$vector@UValue@Ort@@V?$allocator@UValue@Ort@@@std@@@std@@AEBA_K_K@Z
	?_Change_array@?$vector@PEBDV?$allocator@PEBD@std@@@std@@AEAAXQEAPEBD_K1@Z
	?_Change_array@?$vector@UValue@Ort@@V?$allocator@UValue@Ort@@@std@@@std@@AEAAXQEAUValue@Ort@@_K1@Z
	?_Construct_empty@?$basic_string@_WU?$char_traits@_W@std@@V?$allocator@_W@2@@std@@AEAAXXZ
	?_Deallocate_for_capacity@?$basic_string@DU?$char_traits@D@std@@V?$allocator@D@2@@std@@CAXAEAV?$allocator@D@2@QEAD_K@Z
	?_Deallocate_for_capacity@?$basic_string@_WU?$char_traits@_W@std@@V?$allocator@_W@2@@std@@CAXAEAV?$allocator@_W@2@QEA_W_K@Z
	?_Eos@?$basic_string@_WU?$char_traits@_W@std@@V?$allocator@_W@2@@std@@AEAAX_K@Z
	?_Get_first@?$_Compressed_pair@U?$default_delete@UEnv@Ort@@@std@@PEAUEnv@Ort@@$00@std@@QEAAAEAU?$default_delete@UEnv@Ort@@@2@XZ
	?_Get_first@?$_Compressed_pair@U?$default_delete@USessionOptions@Ort@@@std@@PEAUSessionOptions@Ort@@$00@std@@QEAAAEAU?$default_delete@USessionOptions@Ort@@@2@XZ
	?_Get_first@?$_Compressed_pair@V?$allocator@D@std@@V?$_String_val@U?$_Simple_types@D@std@@@2@$00@std@@QEAAAEAV?$allocator@D@2@XZ
	?_Get_first@?$_Compressed_pair@V?$allocator@D@std@@V?$_String_val@U?$_Simple_types@D@std@@@2@$00@std@@QEBAAEBV?$allocator@D@2@XZ
	?_Get_first@?$_Compressed_pair@V?$allocator@H@std@@V?$_Vector_val@U?$_Simple_types@H@std@@@2@$00@std@@QEAAAEAV?$allocator@H@2@XZ
	?_Get_first@?$_Compressed_pair@V?$allocator@H@std@@V?$_Vector_val@U?$_Simple_types@H@std@@@2@$00@std@@QEBAAEBV?$allocator@H@2@XZ
	?_Get_first@?$_Compressed_pair@V?$allocator@M@std@@V?$_Vector_val@U?$_Simple_types@M@std@@@2@$00@std@@QEAAAEAV?$allocator@M@2@XZ
	?_Get_first@?$_Compressed_pair@V?$allocator@M@std@@V?$_Vector_val@U?$_Simple_types@M@std@@@2@$00@std@@QEBAAEBV?$allocator@M@2@XZ
	?_Get_first@?$_Compressed_pair@V?$allocator@PEBD@std@@V?$_Vector_val@U?$_Simple_types@PEBD@std@@@2@$00@std@@QEAAAEAV?$allocator@PEBD@2@XZ
	?_Get_first@?$_Compressed_pair@V?$allocator@PEBD@std@@V?$_Vector_val@U?$_Simple_types@PEBD@std@@@2@$00@std@@QEBAAEBV?$allocator@PEBD@2@XZ
	?_Get_first@?$_Compressed_pair@V?$allocator@UValue@Ort@@@std@@V?$_Vector_val@U?$_Simple_types@UValue@Ort@@@std@@@2@$00@std@@QEAAAEAV?$allocator@UValue@Ort@@@2@XZ
	?_Get_first@?$_Compressed_pair@V?$allocator@UValue@Ort@@@std@@V?$_Vector_val@U?$_Simple_types@UValue@Ort@@@std@@@2@$00@std@@QEBAAEBV?$allocator@UValue@Ort@@@2@XZ
	?_Get_first@?$_Compressed_pair@V?$allocator@_W@std@@V?$_String_val@U?$_Simple_types@_W@std@@@2@$00@std@@QEAAAEAV?$allocator@_W@2@XZ
	?_Get_first@?$_Compressed_pair@V?$allocator@_W@std@@V?$_String_val@U?$_Simple_types@_W@std@@@2@$00@std@@QEBAAEBV?$allocator@_W@2@XZ
	?_Getal@?$basic_string@DU?$char_traits@D@std@@V?$allocator@D@2@@std@@AEAAAEAV?$allocator@D@2@XZ
	?_Getal@?$basic_string@DU?$char_traits@D@std@@V?$allocator@D@2@@std@@AEBAAEBV?$allocator@D@2@XZ
	?_Getal@?$basic_string@_WU?$char_traits@_W@std@@V?$allocator@_W@2@@std@@AEAAAEAV?$allocator@_W@2@XZ
	?_Getal@?$basic_string@_WU?$char_traits@_W@std@@V?$allocator@_W@2@@std@@AEBAAEBV?$allocator@_W@2@XZ
	?_Getal@?$vector@HV?$allocator@H@std@@@std@@AEAAAEAV?$allocator@H@2@XZ
	?_Getal@?$vector@HV?$allocator@H@std@@@std@@AEBAAEBV?$allocator@H@2@XZ
	?_Getal@?$vector@MV?$allocator@M@std@@@std@@AEAAAEAV?$allocator@M@2@XZ
	?_Getal@?$vector@MV?$allocator@M@std@@@std@@AEBAAEBV?$allocator@M@2@XZ
	?_Getal@?$vector@PEBDV?$allocator@PEBD@std@@@std@@AEAAAEAV?$allocator@PEBD@2@XZ
	?_Getal@?$vector@PEBDV?$allocator@PEBD@std@@@std@@AEBAAEBV?$allocator@PEBD@2@XZ
	?_Getal@?$vector@UValue@Ort@@V?$allocator@UValue@Ort@@@std@@@std@@AEAAAEAV?$allocator@UValue@Ort@@@2@XZ
	?_Getal@?$vector@UValue@Ort@@V?$allocator@UValue@Ort@@@std@@@std@@AEBAAEBV?$allocator@UValue@Ort@@@2@XZ
	?_Is_constant_evaluated@std@@YA_NXZ
	?_Large_mode_engaged@?$_String_val@U?$_Simple_types@D@std@@@std@@QEBA_NXZ
	?_Large_mode_engaged@?$_String_val@U?$_Simple_types@_W@std@@@std@@QEBA_NXZ
	?_Myptr@?$_String_val@U?$_Simple_types@D@std@@@std@@QEBAPEBDXZ
	?_Myptr@?$_String_val@U?$_Simple_types@_W@std@@@std@@QEAAPEA_WXZ
	?_Myptr@?$_String_val@U?$_Simple_types@_W@std@@@std@@QEBAPEB_WXZ
	?_Orphan_all@_Container_base0@std@@QEAAXXZ
	?_Orphan_range@?$vector@PEBDV?$allocator@PEBD@std@@@std@@AEBAXPEAPEBD0@Z
	?_Orphan_range@?$vector@UValue@Ort@@V?$allocator@UValue@Ort@@@std@@@std@@AEBAXPEAUValue@Ort@@0@Z
	?_Release@?$_Uninitialized_backout_al@V?$allocator@H@std@@@std@@QEAAPEAHXZ
	?_Release@?$_Uninitialized_backout_al@V?$allocator@M@std@@@std@@QEAAPEAMXZ
	?_Release@?$_Uninitialized_backout_al@V?$allocator@PEBD@std@@@std@@QEAAPEAPEBDXZ
	?_Release@?$_Uninitialized_backout_al@V?$allocator@UValue@Ort@@@std@@@std@@QEAAPEAUValue@Ort@@XZ
	?_Release@_Fake_proxy_ptr_impl@std@@QEAAXXZ
	?_Swap_proxy_and_iterators@?$basic_string@DU?$char_traits@D@std@@V?$allocator@D@2@@std@@AEAAXAEAV12@@Z
	?_Swap_proxy_and_iterators@?$basic_string@_WU?$char_traits@_W@std@@V?$allocator@_W@2@@std@@AEAAXAEAV12@@Z
	?_Swap_proxy_and_iterators@_Container_base0@std@@QEAAXAEAU12@@Z
	?_Switch_to_buf@_Bxty@?$_String_val@U?$_Simple_types@D@std@@@std@@QEAAXXZ
	?_Switch_to_buf@_Bxty@?$_String_val@U?$_Simple_types@_W@std@@@std@@QEAAXXZ
	?_Take_contents@?$basic_string@DU?$char_traits@D@std@@V?$allocator@D@2@@std@@AEAAXAEAV12@@Z
	?_Take_contents@?$basic_string@_WU?$char_traits@_W@std@@V?$allocator@_W@2@@std@@AEAAXAEAV12@@Z
	?_Throw_bad_array_new_length@std@@YAXXZ
	?_Tidy@?$vector@HV?$allocator@H@std@@@std@@AEAAXXZ
	?_Tidy@?$vector@MV?$allocator@M@std@@@std@@AEAAXXZ
	?_Tidy@?$vector@PEBDV?$allocator@PEBD@std@@@std@@AEAAXXZ
	?_Tidy@?$vector@UValue@Ort@@V?$allocator@UValue@Ort@@@std@@@std@@AEAAXXZ
	?_Tidy_deallocate@?$basic_string@DU?$char_traits@D@std@@V?$allocator@D@2@@std@@AEAAXXZ
	?_Tidy_deallocate@?$basic_string@_WU?$char_traits@_W@std@@V?$allocator@_W@2@@std@@AEAAXXZ
	?_Xlen_string@std@@YAXXZ
	?_Xlength@?$vector@HV?$allocator@H@std@@@std@@CAXXZ
	?_Xlength@?$vector@MV?$allocator@M@std@@@std@@CAXXZ
	?_Xlength@?$vector@PEBDV?$allocator@PEBD@std@@@std@@CAXXZ
	?_Xlength@?$vector@UValue@Ort@@V?$allocator@UValue@Ort@@@std@@@std@@CAXXZ
	?allocate@?$allocator@D@std@@QEAAPEAD_K@Z
	?allocate@?$allocator@H@std@@QEAAPEAH_K@Z
	?allocate@?$allocator@M@std@@QEAAPEAM_K@Z
	?allocate@?$allocator@PEBD@std@@QEAAPEAPEBD_K@Z
	?allocate@?$allocator@UValue@Ort@@@std@@QEAAPEAUValue@Ort@@_K@Z
	?allocate@?$allocator@_W@std@@QEAAPEA_W_K@Z
	?append@?$basic_string@_WU?$char_traits@_W@std@@V?$allocator@_W@2@@std@@QEAAAEAV12@_K_W@Z
	?assign@?$_Narrow_char_traits@DH@std@@SAXAEADAEBD@Z
	?assign@?$_WChar_traits@_W@std@@SAPEA_WQEA_W_K_W@Z
	?assign@?$_WChar_traits@_W@std@@SAXAEA_WAEB_W@Z
	?c_str@?$basic_string@DU?$char_traits@D@std@@V?$allocator@D@2@@std@@QEBAPEBDXZ
	?c_str@?$basic_string@_WU?$char_traits@_W@std@@V?$allocator@_W@2@@std@@QEBAPEB_WXZ
	?capacity@?$vector@PEBDV?$allocator@PEBD@std@@@std@@QEBA_KXZ
	?capacity@?$vector@UValue@Ort@@V?$allocator@UValue@Ort@@@std@@@std@@QEBA_KXZ
	?copy@?$_Char_traits@DH@std@@SAPEADQEADQEBD_K@Z
	?copy@?$_Char_traits@_WG@std@@SAPEA_WQEA_WQEB_W_K@Z
	?data@?$vector@HV?$allocator@H@std@@@std@@QEAAPEAHXZ
	?data@?$vector@MV?$allocator@M@std@@@std@@QEAAPEAMXZ
	?data@?$vector@PEBDV?$allocator@PEBD@std@@@std@@QEAAPEAPEBDXZ
	?data@?$vector@UValue@Ort@@V?$allocator@UValue@Ort@@@std@@@std@@QEAAPEAUValue@Ort@@XZ
	?deallocate@?$allocator@D@std@@QEAAXQEAD_K@Z
	?deallocate@?$allocator@H@std@@QEAAXQEAH_K@Z
	?deallocate@?$allocator@M@std@@QEAAXQEAM_K@Z
	?deallocate@?$allocator@PEBD@std@@QEAAXQEAPEBD_K@Z
	?deallocate@?$allocator@UValue@Ort@@@std@@QEAAXQEAUValue@Ort@@_K@Z
	?deallocate@?$allocator@_W@std@@QEAAXQEA_W_K@Z
	?length@?$_Narrow_char_traits@DH@std@@SA_KQEBD@Z
	?length@?$_WChar_traits@_W@std@@SA_KPEB_W@Z
	?max_size@?$_Default_allocator_traits@V?$allocator@D@std@@@std@@SA_KAEBV?$allocator@D@2@@Z
	?max_size@?$_Default_allocator_traits@V?$allocator@H@std@@@std@@SA_KAEBV?$allocator@H@2@@Z
	?max_size@?$_Default_allocator_traits@V?$allocator@M@std@@@std@@SA_KAEBV?$allocator@M@2@@Z
	?max_size@?$_Default_allocator_traits@V?$allocator@PEBD@std@@@std@@SA_KAEBV?$allocator@PEBD@2@@Z
	?max_size@?$_Default_allocator_traits@V?$allocator@UValue@Ort@@@std@@@std@@SA_KAEBV?$allocator@UValue@Ort@@@2@@Z
	?max_size@?$_Default_allocator_traits@V?$allocator@_W@std@@@std@@SA_KAEBV?$allocator@_W@2@@Z
	?max_size@?$basic_string@DU?$char_traits@D@std@@V?$allocator@D@2@@std@@QEBA_KXZ
	?max_size@?$basic_string@_WU?$char_traits@_W@std@@V?$allocator@_W@2@@std@@QEBA_KXZ
	?max_size@?$vector@HV?$allocator@H@std@@@std@@QEBA_KXZ
	?max_size@?$vector@MV?$allocator@M@std@@@std@@QEBA_KXZ
	?max_size@?$vector@PEBDV?$allocator@PEBD@std@@@std@@QEBA_KXZ
	?max_size@?$vector@UValue@Ort@@V?$allocator@UValue@Ort@@@std@@@std@@QEBA_KXZ
	?push_back@?$vector@PEBDV?$allocator@PEBD@std@@@std@@QEAAX$$QEAPEBD@Z
	?push_back@?$vector@UValue@Ort@@V?$allocator@UValue@Ort@@@std@@@std@@QEAAX$$QEAUValue@Ort@@@Z
	?release@?$unique_ptr@UEnv@Ort@@U?$default_delete@UEnv@Ort@@@std@@@std@@QEAAPEAUEnv@Ort@@XZ
	?release@?$unique_ptr@USessionOptions@Ort@@U?$default_delete@USessionOptions@Ort@@@std@@@std@@QEAAPEAUSessionOptions@Ort@@XZ
	?reserve@?$vector@UValue@Ort@@V?$allocator@UValue@Ort@@@std@@@std@@QEAAX_K@Z
	?reset@?$unique_ptr@UEnv@Ort@@U?$default_delete@UEnv@Ort@@@std@@@std@@QEAAXPEAUEnv@Ort@@@Z
	?reset@?$unique_ptr@USessionOptions@Ort@@U?$default_delete@USessionOptions@Ort@@@std@@@std@@QEAAXPEAUSessionOptions@Ort@@@Z
	?resize@?$basic_string@_WU?$char_traits@_W@std@@V?$allocator@_W@2@@std@@QEAAX_K_W@Z
	?select_on_container_copy_construction@?$_Default_allocator_traits@V?$allocator@D@std@@@std@@SA?AV?$allocator@D@2@AEBV32@@Z
	?size@?$basic_string@_WU?$char_traits@_W@std@@V?$allocator@_W@2@@std@@QEBA_KXZ
	?size@?$vector@HV?$allocator@H@std@@@std@@QEBA_KXZ
	?size@?$vector@MV?$allocator@M@std@@@std@@QEBA_KXZ
	?size@?$vector@PEBDV?$allocator@PEBD@std@@@std@@QEBA_KXZ
	?what@Exception@Ort@@UEBAPEBDXZ
	?what@exception@std@@UEBAPEBDXZ
	sam_create_decoder_session
	sam_create_encoder_session
	sam_init
	sam_run_decoder
	sam_run_encoder
	wmemset
